; ModuleID = 'source-C-CXX/52/1543.c'
source_filename = "source-C-CXX/52/1543.c"
target datalayout = "e-m:e-p270:32:32-p271:32:32-p272:64:64-i64:64-f80:128-n8:16:32:64-S128"
target triple = "x86_64-pc-linux-gnu"

@main.b = internal unnamed_addr global [1000 x i32] zeroinitializer, align 16
@.str = private unnamed_addr constant [3 x i8] c"%d\00", align 1
@.str.1 = private unnamed_addr constant [4 x i8] c",%d\00", align 1

; Function Attrs: nofree nounwind sspstrong uwtable
define dso_local i32 @main() local_unnamed_addr #0 {
  %1 = alloca i32, align 4
  %2 = alloca i32, align 4
  %3 = bitcast i32* %1 to i8*
  call void @llvm.lifetime.start.p0i8(i64 4, i8* nonnull %3) #3
  %4 = bitcast i32* %2 to i8*
  call void @llvm.lifetime.start.p0i8(i64 4, i8* nonnull %4) #3
  %5 = call i32 (i8*, ...) @__isoc99_scanf(i8* getelementptr inbounds ([3 x i8], [3 x i8]* @.str, i64 0, i64 0), i32* nonnull %1)
  %6 = load i32, i32* %1, align 4, !tbaa !5
  %7 = icmp slt i32 %6, 0
  br i1 %7, label %8, label %11

8:                                                ; preds = %0
  %9 = load i32, i32* getelementptr inbounds ([1000 x i32], [1000 x i32]* @main.b, i64 0, i64 0), align 16, !tbaa !5
  %10 = call i32 (i8*, ...) @printf(i8* nonnull dereferenceable(1) getelementptr inbounds ([3 x i8], [3 x i8]* @.str, i64 0, i64 0), i32 %9)
  br label %49

11:                                               ; preds = %0, %31
  %12 = phi i32 [ %32, %31 ], [ 0, %0 ]
  %13 = phi i32 [ %33, %31 ], [ 0, %0 ]
  %14 = call i32 (i8*, ...) @__isoc99_scanf(i8* getelementptr inbounds ([3 x i8], [3 x i8]* @.str, i64 0, i64 0), i32* nonnull %2)
  %15 = load i32, i32* %2, align 4
  %16 = icmp sgt i32 %12, 0
  br i1 %16, label %17, label %27

17:                                               ; preds = %11
  %18 = zext i32 %12 to i64
  br label %21

19:                                               ; preds = %21
  %20 = icmp eq i64 %26, %18
  br i1 %20, label %27, label %21, !llvm.loop !9

21:                                               ; preds = %17, %19
  %22 = phi i64 [ 0, %17 ], [ %26, %19 ]
  %23 = getelementptr inbounds [1000 x i32], [1000 x i32]* @main.b, i64 0, i64 %22
  %24 = load i32, i32* %23, align 4, !tbaa !5
  %25 = icmp eq i32 %15, %24
  %26 = add nuw nsw i64 %22, 1
  br i1 %25, label %31, label %19

27:                                               ; preds = %19, %11
  %28 = sext i32 %12 to i64
  %29 = getelementptr inbounds [1000 x i32], [1000 x i32]* @main.b, i64 0, i64 %28
  store i32 %15, i32* %29, align 4, !tbaa !5
  %30 = add nsw i32 %12, 1
  br label %31

31:                                               ; preds = %21, %27
  %32 = phi i32 [ %30, %27 ], [ %12, %21 ]
  %33 = add nuw nsw i32 %13, 1
  %34 = load i32, i32* %1, align 4, !tbaa !5
  %35 = icmp slt i32 %13, %34
  br i1 %35, label %11, label %36, !llvm.loop !11

36:                                               ; preds = %31
  %37 = load i32, i32* getelementptr inbounds ([1000 x i32], [1000 x i32]* @main.b, i64 0, i64 0), align 16, !tbaa !5
  %38 = call i32 (i8*, ...) @printf(i8* nonnull dereferenceable(1) getelementptr inbounds ([3 x i8], [3 x i8]* @.str, i64 0, i64 0), i32 %37)
  %39 = icmp sgt i32 %32, 1
  br i1 %39, label %40, label %49

40:                                               ; preds = %36
  %41 = zext i32 %32 to i64
  br label %42

42:                                               ; preds = %40, %42
  %43 = phi i64 [ 1, %40 ], [ %47, %42 ]
  %44 = getelementptr inbounds [1000 x i32], [1000 x i32]* @main.b, i64 0, i64 %43
  %45 = load i32, i32* %44, align 4, !tbaa !5
  %46 = call i32 (i8*, ...) @printf(i8* nonnull dereferenceable(1) getelementptr inbounds ([4 x i8], [4 x i8]* @.str.1, i64 0, i64 0), i32 %45)
  %47 = add nuw nsw i64 %43, 1
  %48 = icmp eq i64 %47, %41
  br i1 %48, label %49, label %42, !llvm.loop !12

49:                                               ; preds = %42, %8, %36
  call void @llvm.lifetime.end.p0i8(i64 4, i8* nonnull %4) #3
  call void @llvm.lifetime.end.p0i8(i64 4, i8* nonnull %3) #3
  ret i32 0
}

; Function Attrs: argmemonly mustprogress nofree nosync nounwind willreturn
declare void @llvm.lifetime.start.p0i8(i64 immarg, i8* nocapture) #1

; Function Attrs: nofree nounwind
declare noundef i32 @__isoc99_scanf(i8* nocapture noundef readonly, ...) local_unnamed_addr #2

; Function Attrs: nofree nounwind
declare noundef i32 @printf(i8* nocapture noundef readonly, ...) local_unnamed_addr #2

; Function Attrs: argmemonly mustprogress nofree nosync nounwind willreturn
declare void @llvm.lifetime.end.p0i8(i64 immarg, i8* nocapture) #1


!llvm.module.flags = !{!0, !1, !2, !3}
!llvm.ident = !{!4}

!0 = !{i32 1, !"wchar_size", i32 4}
!1 = !{i32 7, !"PIC Level", i32 2}
!2 = !{i32 7, !"PIE Level", i32 2}
!3 = !{i32 7, !"uwtable", i32 1}
!4 = !{!"clang version 13.0.0"}
!5 = !{!6, !6, i64 0}
!6 = !{!"int", !7, i64 0}
!7 = !{!"omnipotent char", !8, i64 0}
!8 = !{!"Simple C/C++ TBAA"}
!9 = distinct !{!9, !10}
!10 = !{!"llvm.loop.mustprogress"}
!11 = distinct !{!11, !10}
!12 = distinct !{!12, !10}
